#include <math.h>
#include <stdio.h>
#include <stdlib.h>
#include <string.h>
#include <iostream>
using namespace std;

/*
 * ????1118-4.cpp
 * ?????
 * ????: 2011-11-29
 * ??????????a?????????????????a = a1 * a2 * a3 * ... * an???1 < a1 <= a2 <= a3 <= ... <= an?????????????
 */
int divide(int n,int a)//n?????????a????????????????????
{
	int s=0,i;
	if(n==1) return 1;//n?1???
	for(i=a;i>1;i--)
		if(n%i==0)
			s+=divide(n/i,i);//???????
	return s;//??0??????????0??????????
}
int main()
{
	int n,k;
	cin>>k;//??????
	while(k>0)//???????
	{
		cin>>n;//????????
		cout<<divide(n,n)<<endl;//??????
		k--;//?????????
	}
	return 0;//????
}
