; ModuleID = 'source-C-CXX/0/954.cpp'
source_filename = "source-C-CXX/0/954.cpp"
target datalayout = "e-m:e-p270:32:32-p271:32:32-p272:64:64-i64:64-f80:128-n8:16:32:64-S128"
target triple = "x86_64-pc-linux-gnu"

%"class.std::ios_base::Init" = type { i8 }
%"class.std::basic_istream" = type { i32 (...)**, i64, %"class.std::basic_ios" }
%"class.std::basic_ios" = type { %"class.std::ios_base", %"class.std::basic_ostream"*, i8, i8, %"class.std::basic_streambuf"*, %"class.std::ctype"*, %"class.std::num_put"*, %"class.std::num_get"* }
%"class.std::ios_base" = type { i32 (...)**, i64, i64, i32, i32, i32, %"struct.std::ios_base::_Callback_list"*, %"struct.std::ios_base::_Words", [8 x %"struct.std::ios_base::_Words"], i32, %"struct.std::ios_base::_Words"*, %"class.std::locale" }
%"struct.std::ios_base::_Callback_list" = type { %"struct.std::ios_base::_Callback_list"*, void (i32, %"class.std::ios_base"*, i32)*, i32, i32 }
%"struct.std::ios_base::_Words" = type { i8*, i64 }
%"class.std::locale" = type { %"class.std::locale::_Impl"* }
%"class.std::locale::_Impl" = type { i32, %"class.std::locale::facet"**, i64, %"class.std::locale::facet"**, i8** }
%"class.std::locale::facet" = type <{ i32 (...)**, i32, [4 x i8] }>
%"class.std::basic_ostream" = type { i32 (...)**, %"class.std::basic_ios" }
%"class.std::basic_streambuf" = type { i32 (...)**, i8*, i8*, i8*, i8*, i8*, i8*, %"class.std::locale" }
%"class.std::ctype" = type <{ %"class.std::locale::facet.base", [4 x i8], %struct.__locale_struct*, i8, [7 x i8], i32*, i32*, i16*, i8, [256 x i8], [256 x i8], i8, [6 x i8] }>
%"class.std::locale::facet.base" = type <{ i32 (...)**, i32 }>
%struct.__locale_struct = type { [13 x %struct.__locale_data*], i16*, i32*, i32*, [13 x i8*] }
%struct.__locale_data = type opaque
%"class.std::num_put" = type { %"class.std::locale::facet.base", [4 x i8] }
%"class.std::num_get" = type { %"class.std::locale::facet.base", [4 x i8] }

@_ZStL8__ioinit = internal global %"class.std::ios_base::Init" zeroinitializer, align 1
@__dso_handle = external hidden global i8
@_ZSt3cin = external global %"class.std::basic_istream", align 8
@_ZSt4cout = external global %"class.std::basic_ostream", align 8
@llvm.global_ctors = appending global [1 x { i32, void ()*, i8* }] [{ i32, void ()*, i8* } { i32 65535, void ()* @_GLOBAL__sub_I_954.cpp, i8* null }]

declare void @_ZNSt8ios_base4InitC1Ev(%"class.std::ios_base::Init"* nonnull align 1 dereferenceable(1)) unnamed_addr #0

; Function Attrs: nounwind
declare void @_ZNSt8ios_base4InitD1Ev(%"class.std::ios_base::Init"* nonnull align 1 dereferenceable(1)) unnamed_addr #1

; Function Attrs: nofree nounwind
declare i32 @__cxa_atexit(void (i8*)*, i8*, i8*) local_unnamed_addr #2

; Function Attrs: mustprogress nofree nosync nounwind readnone sspstrong uwtable willreturn
define dso_local i32 @_Z6divideii(i32 %0, i32 %1) local_unnamed_addr #3 {
  %3 = icmp eq i32 %0, 1
  br i1 %3, label %19, label %4

4:                                                ; preds = %2
  %5 = icmp sgt i32 %1, 1
  br i1 %5, label %6, label %19

6:                                                ; preds = %4, %15
  %7 = phi i32 [ %17, %15 ], [ %1, %4 ]
  %8 = phi i32 [ %16, %15 ], [ 0, %4 ]
  %9 = srem i32 %0, %7
  %10 = sdiv i32 %0, %7
  %11 = icmp eq i32 %9, 0
  br i1 %11, label %12, label %15

12:                                               ; preds = %6
  %13 = tail call i32 @_Z6divideii(i32 %10, i32 %7)
  %14 = add nsw i32 %13, %8
  br label %15

15:                                               ; preds = %6, %12
  %16 = phi i32 [ %14, %12 ], [ %8, %6 ]
  %17 = add nsw i32 %7, -1
  %18 = icmp sgt i32 %7, 2
  br i1 %18, label %6, label %19, !llvm.loop !5

19:                                               ; preds = %15, %4, %2
  %20 = phi i32 [ 1, %2 ], [ 0, %4 ], [ %16, %15 ]
  ret i32 %20
}

; Function Attrs: argmemonly mustprogress nofree nosync nounwind willreturn
declare void @llvm.lifetime.start.p0i8(i64 immarg, i8* nocapture) #4

; Function Attrs: argmemonly mustprogress nofree nosync nounwind willreturn
declare void @llvm.lifetime.end.p0i8(i64 immarg, i8* nocapture) #4

; Function Attrs: mustprogress norecurse sspstrong uwtable
define dso_local i32 @main() local_unnamed_addr #5 {
  %1 = alloca i32, align 4
  %2 = alloca i32, align 4
  %3 = bitcast i32* %1 to i8*
  call void @llvm.lifetime.start.p0i8(i64 4, i8* nonnull %3) #8
  %4 = bitcast i32* %2 to i8*
  call void @llvm.lifetime.start.p0i8(i64 4, i8* nonnull %4) #8
  %5 = call nonnull align 8 dereferenceable(16) %"class.std::basic_istream"* @_ZNSirsERi(%"class.std::basic_istream"* nonnull align 8 dereferenceable(16) @_ZSt3cin, i32* nonnull align 4 dereferenceable(4) %2)
  %6 = load i32, i32* %2, align 4, !tbaa !7
  %7 = icmp sgt i32 %6, 0
  br i1 %7, label %8, label %45

8:                                                ; preds = %0, %38
  %9 = call nonnull align 8 dereferenceable(16) %"class.std::basic_istream"* @_ZNSirsERi(%"class.std::basic_istream"* nonnull align 8 dereferenceable(16) @_ZSt3cin, i32* nonnull align 4 dereferenceable(4) %1)
  %10 = load i32, i32* %1, align 4, !tbaa !7
  %11 = call i32 @_Z6divideii(i32 %10, i32 %10)
  %12 = call nonnull align 8 dereferenceable(8) %"class.std::basic_ostream"* @_ZNSolsEi(%"class.std::basic_ostream"* nonnull align 8 dereferenceable(8) @_ZSt4cout, i32 %11)
  %13 = bitcast %"class.std::basic_ostream"* %12 to i8**
  %14 = load i8*, i8** %13, align 8, !tbaa !11
  %15 = getelementptr i8, i8* %14, i64 -24
  %16 = bitcast i8* %15 to i64*
  %17 = load i64, i64* %16, align 8
  %18 = bitcast %"class.std::basic_ostream"* %12 to i8*
  %19 = add nsw i64 %17, 240
  %20 = getelementptr inbounds i8, i8* %18, i64 %19
  %21 = bitcast i8* %20 to %"class.std::ctype"**
  %22 = load %"class.std::ctype"*, %"class.std::ctype"** %21, align 8, !tbaa !13
  %23 = icmp eq %"class.std::ctype"* %22, null
  br i1 %23, label %24, label %25

24:                                               ; preds = %8
  call void @_ZSt16__throw_bad_castv() #9
  unreachable

25:                                               ; preds = %8
  %26 = getelementptr inbounds %"class.std::ctype", %"class.std::ctype"* %22, i64 0, i32 8
  %27 = load i8, i8* %26, align 8, !tbaa !17
  %28 = icmp eq i8 %27, 0
  br i1 %28, label %32, label %29

29:                                               ; preds = %25
  %30 = getelementptr inbounds %"class.std::ctype", %"class.std::ctype"* %22, i64 0, i32 9, i64 10
  %31 = load i8, i8* %30, align 1, !tbaa !19
  br label %38

32:                                               ; preds = %25
  call void @_ZNKSt5ctypeIcE13_M_widen_initEv(%"class.std::ctype"* nonnull align 8 dereferenceable(570) %22)
  %33 = bitcast %"class.std::ctype"* %22 to i8 (%"class.std::ctype"*, i8)***
  %34 = load i8 (%"class.std::ctype"*, i8)**, i8 (%"class.std::ctype"*, i8)*** %33, align 8, !tbaa !11
  %35 = getelementptr inbounds i8 (%"class.std::ctype"*, i8)*, i8 (%"class.std::ctype"*, i8)** %34, i64 6
  %36 = load i8 (%"class.std::ctype"*, i8)*, i8 (%"class.std::ctype"*, i8)** %35, align 8
  %37 = call signext i8 %36(%"class.std::ctype"* nonnull align 8 dereferenceable(570) %22, i8 signext 10)
  br label %38

38:                                               ; preds = %29, %32
  %39 = phi i8 [ %31, %29 ], [ %37, %32 ]
  %40 = call nonnull align 8 dereferenceable(8) %"class.std::basic_ostream"* @_ZNSo3putEc(%"class.std::basic_ostream"* nonnull align 8 dereferenceable(8) %12, i8 signext %39)
  %41 = call nonnull align 8 dereferenceable(8) %"class.std::basic_ostream"* @_ZNSo5flushEv(%"class.std::basic_ostream"* nonnull align 8 dereferenceable(8) %40)
  %42 = load i32, i32* %2, align 4, !tbaa !7
  %43 = add nsw i32 %42, -1
  store i32 %43, i32* %2, align 4, !tbaa !7
  %44 = icmp sgt i32 %42, 1
  br i1 %44, label %8, label %45, !llvm.loop !20

45:                                               ; preds = %38, %0
  call void @llvm.lifetime.end.p0i8(i64 4, i8* nonnull %4) #8
  call void @llvm.lifetime.end.p0i8(i64 4, i8* nonnull %3) #8
  ret i32 0
}

declare nonnull align 8 dereferenceable(16) %"class.std::basic_istream"* @_ZNSirsERi(%"class.std::basic_istream"* nonnull align 8 dereferenceable(16), i32* nonnull align 4 dereferenceable(4)) local_unnamed_addr #0

declare nonnull align 8 dereferenceable(8) %"class.std::basic_ostream"* @_ZNSolsEi(%"class.std::basic_ostream"* nonnull align 8 dereferenceable(8), i32) local_unnamed_addr #0

declare nonnull align 8 dereferenceable(8) %"class.std::basic_ostream"* @_ZNSo3putEc(%"class.std::basic_ostream"* nonnull align 8 dereferenceable(8), i8 signext) local_unnamed_addr #0

declare nonnull align 8 dereferenceable(8) %"class.std::basic_ostream"* @_ZNSo5flushEv(%"class.std::basic_ostream"* nonnull align 8 dereferenceable(8)) local_unnamed_addr #0

; Function Attrs: noreturn
declare void @_ZSt16__throw_bad_castv() local_unnamed_addr #6

declare void @_ZNKSt5ctypeIcE13_M_widen_initEv(%"class.std::ctype"* nonnull align 8 dereferenceable(570)) local_unnamed_addr #0

; Function Attrs: sspstrong uwtable
define internal void @_GLOBAL__sub_I_954.cpp() #7 section ".text.startup" {
  tail call void @_ZNSt8ios_base4InitC1Ev(%"class.std::ios_base::Init"* nonnull align 1 dereferenceable(1) @_ZStL8__ioinit)
  %1 = tail call i32 @__cxa_atexit(void (i8*)* bitcast (void (%"class.std::ios_base::Init"*)* @_ZNSt8ios_base4InitD1Ev to void (i8*)*), i8* getelementptr inbounds (%"class.std::ios_base::Init", %"class.std::ios_base::Init"* @_ZStL8__ioinit, i64 0, i32 0), i8* nonnull @__dso_handle) #8
  ret void
}


!llvm.module.flags = !{!0, !1, !2, !3}
!llvm.ident = !{!4}

!0 = !{i32 1, !"wchar_size", i32 4}
!1 = !{i32 7, !"PIC Level", i32 2}
!2 = !{i32 7, !"PIE Level", i32 2}
!3 = !{i32 7, !"uwtable", i32 1}
!4 = !{!"clang version 13.0.0"}
!5 = distinct !{!5, !6}
!6 = !{!"llvm.loop.mustprogress"}
!7 = !{!8, !8, i64 0}
!8 = !{!"int", !9, i64 0}
!9 = !{!"omnipotent char", !10, i64 0}
!10 = !{!"Simple C++ TBAA"}
!11 = !{!12, !12, i64 0}
!12 = !{!"vtable pointer", !10, i64 0}
!13 = !{!14, !15, i64 240}
!14 = !{!"_ZTSSt9basic_iosIcSt11char_traitsIcEE", !15, i64 216, !9, i64 224, !16, i64 225, !15, i64 232, !15, i64 240, !15, i64 248, !15, i64 256}
!15 = !{!"any pointer", !9, i64 0}
!16 = !{!"bool", !9, i64 0}
!17 = !{!18, !9, i64 56}
!18 = !{!"_ZTSSt5ctypeIcE", !15, i64 16, !16, i64 24, !15, i64 32, !15, i64 40, !15, i64 48, !9, i64 56, !9, i64 57, !9, i64 313, !9, i64 569}
!19 = !{!9, !9, i64 0}
!20 = distinct !{!20, !6}
